target datalayout = "e-m:e-p270:32:32-p271:32:32-p272:64:64-i64:64-i128:128-f80:128-n8:16:32:64-S128"
target triple = "x86_64-pc-linux-gnu"

%"class.cv::reg::MapProjec" = type { %"class.cv::reg::Map", %"class.cv::Matx" }
%"class.cv::reg::Map" = type { ptr }
%"class.cv::Matx" = type { [9 x double] }

; Function Attrs: mustprogress nounwind uwtable
define linkonce_odr hidden noundef nonnull align 8 dereferenceable(8) ptr @_ZN2cv4MatxIdLi3ELi3EEclEii(ptr noundef nonnull align 8 dereferenceable(72) %0, i32 noundef %1, i32 noundef %2) #1 comdat align 2 {
  %4 = alloca ptr, align 8
  %5 = alloca i32, align 4
  %6 = alloca i32, align 4
  store ptr %0, ptr %4, align 8
  store i32 %1, ptr %5, align 4
  store i32 %2, ptr %6, align 4
  %7 = load ptr, ptr %4, align 8
  %8 = getelementptr inbounds %"class.cv::Matx", ptr %7, i32 0, i32 0
  %9 = load i32, ptr %5, align 4
  %10 = mul nsw i32 %9, 3
  %11 = load i32, ptr %6, align 4
  %12 = add nsw i32 %10, %11
  %13 = sext i32 %12 to i64
  %14 = getelementptr inbounds [9 x double], ptr %8, i64 0, i64 %13
  ret ptr %14
}

; Function Attrs: mustprogress uwtable
define void @_ZN2cv3reg9MapProjec5scaleEd(ptr noundef nonnull align 8 dereferenceable(80) %0, double noundef %1) unnamed_addr #0 align 2 {
  %3 = alloca ptr, align 8
  %4 = alloca double, align 8
  store ptr %0, ptr %3, align 8
  store double %1, ptr %4, align 8
  %5 = load ptr, ptr %3, align 8
  %6 = load double, ptr %4, align 8
  %7 = getelementptr inbounds %"class.cv::reg::MapProjec", ptr %5, i32 0, i32 1
  %8 = call noundef nonnull align 8 dereferenceable(8) ptr @_ZN2cv4MatxIdLi3ELi3EEclEii(ptr noundef nonnull align 8 dereferenceable(72) %7, i32 noundef 0, i32 noundef 2)
  %9 = load double, ptr %8, align 8
  %10 = fmul double %9, %6
  store double %10, ptr %8, align 8
  %11 = load double, ptr %4, align 8
  %12 = getelementptr inbounds %"class.cv::reg::MapProjec", ptr %5, i32 0, i32 1
  %13 = call noundef nonnull align 8 dereferenceable(8) ptr @_ZN2cv4MatxIdLi3ELi3EEclEii(ptr noundef nonnull align 8 dereferenceable(72) %12, i32 noundef 1, i32 noundef 2)
  %14 = load double, ptr %13, align 8
  %15 = fmul double %14, %11
  store double %15, ptr %13, align 8
  %16 = load double, ptr %4, align 8
  %17 = getelementptr inbounds %"class.cv::reg::MapProjec", ptr %5, i32 0, i32 1
  %18 = call noundef nonnull align 8 dereferenceable(8) ptr @_ZN2cv4MatxIdLi3ELi3EEclEii(ptr noundef nonnull align 8 dereferenceable(72) %17, i32 noundef 2, i32 noundef 0)
  %19 = load double, ptr %18, align 8
  %20 = fdiv double %19, %16
  store double %20, ptr %18, align 8
  %21 = load double, ptr %4, align 8
  %22 = getelementptr inbounds %"class.cv::reg::MapProjec", ptr %5, i32 0, i32 1
  %23 = call noundef nonnull align 8 dereferenceable(8) ptr @_ZN2cv4MatxIdLi3ELi3EEclEii(ptr noundef nonnull align 8 dereferenceable(72) %22, i32 noundef 2, i32 noundef 1)
  %24 = load double, ptr %23, align 8
  %25 = fdiv double %24, %21
  store double %25, ptr %23, align 8
  ret void
}