; Function Attrs: mustprogress nofree norecurse nosync nounwind willreturn memory(argmem: readwrite) uwtable
define void @_ZN2cv3reg9MapProjec5scaleEd(ptr nocapture noundef nonnull align 8 dereferenceable(80) %0, double noundef %1) unnamed_addr #10 align 2 {
  %3 = getelementptr inbounds i8, ptr %0, i64 24
  %4 = load double, ptr %3, align 8
  %5 = fmul double %4, %1
  store double %5, ptr %3, align 8
  %6 = getelementptr inbounds i8, ptr %0, i64 48
  %7 = load double, ptr %6, align 8
  %8 = fmul double %7, %1
  store double %8, ptr %6, align 8
  %9 = getelementptr inbounds i8, ptr %0, i64 56
  %10 = load <2 x double>, ptr %9, align 8
  %11 = insertelement <2 x double> poison, double %1, i64 0
  %12 = shufflevector <2 x double> %11, <2 x double> poison, <2 x i32> zeroinitializer
  %13 = fdiv <2 x double> %10, %12
  store <2 x double> %13, ptr %9, align 8
  ret void
}